; ModuleID = 'source-C-CXX/27/1565.c'
source_filename = "source-C-CXX/27/1565.c"
target datalayout = "e-m:e-p270:32:32-p271:32:32-p272:64:64-i64:64-f80:128-n8:16:32:64-S128"
target triple = "x86_64-pc-linux-gnu"

@.str = private unnamed_addr constant [4 x i8] c"%d,\00", align 1
@.str.1 = private unnamed_addr constant [3 x i8] c"%d\00", align 1

; Function Attrs: nounwind sspstrong uwtable
define dso_local i32 @main() local_unnamed_addr #0 {
  %1 = alloca [800 x i8], align 16
  %2 = alloca [300 x i32], align 16
  %3 = getelementptr inbounds [800 x i8], [800 x i8]* %1, i64 0, i64 0
  call void @llvm.lifetime.start.p0i8(i64 800, i8* nonnull %3) #4
  %4 = call i32 (i8*, ...) bitcast (i32 (...)* @gets to i32 (i8*, ...)*)(i8* nonnull %3) #4
  %5 = bitcast [300 x i32]* %2 to i8*
  call void @llvm.lifetime.start.p0i8(i64 1200, i8* nonnull %5) #4
  %6 = getelementptr inbounds [300 x i32], [300 x i32]* %2, i64 0, i64 0
  store i32 0, i32* %6, align 16, !tbaa !5
  br label %7

7:                                                ; preds = %25, %0
  %8 = phi i64 [ %21, %25 ], [ 0, %0 ]
  %9 = phi i32 [ %26, %25 ], [ 0, %0 ]
  %10 = zext i32 %9 to i64
  %11 = getelementptr inbounds [300 x i32], [300 x i32]* %2, i64 0, i64 %10
  br label %12

12:                                               ; preds = %33, %7
  %13 = phi i64 [ %8, %7 ], [ %34, %33 ]
  %14 = getelementptr inbounds [800 x i8], [800 x i8]* %1, i64 0, i64 %13
  %15 = load i8, i8* %14, align 1, !tbaa !9
  switch i8 %15, label %29 [
    i8 0, label %16
    i8 32, label %20
  ]

16:                                               ; preds = %12
  %17 = icmp eq i32 %9, 0
  br i1 %17, label %42, label %18

18:                                               ; preds = %16
  %19 = zext i32 %9 to i64
  br label %35

20:                                               ; preds = %12
  %21 = add nuw i64 %13, 1
  %22 = getelementptr inbounds [800 x i8], [800 x i8]* %1, i64 0, i64 %21
  %23 = load i8, i8* %22, align 1, !tbaa !9
  %24 = icmp eq i8 %23, 32
  br i1 %24, label %33, label %25

25:                                               ; preds = %20
  %26 = add nuw nsw i32 %9, 1
  %27 = zext i32 %26 to i64
  %28 = getelementptr inbounds [300 x i32], [300 x i32]* %2, i64 0, i64 %27
  store i32 0, i32* %28, align 4, !tbaa !5
  br label %7, !llvm.loop !10

29:                                               ; preds = %12
  %30 = load i32, i32* %11, align 4, !tbaa !5
  %31 = add nsw i32 %30, 1
  store i32 %31, i32* %11, align 4, !tbaa !5
  %32 = add nuw i64 %13, 1
  br label %33

33:                                               ; preds = %29, %20
  %34 = phi i64 [ %32, %29 ], [ %21, %20 ]
  br label %12, !llvm.loop !10

35:                                               ; preds = %18, %35
  %36 = phi i64 [ 0, %18 ], [ %40, %35 ]
  %37 = getelementptr inbounds [300 x i32], [300 x i32]* %2, i64 0, i64 %36
  %38 = load i32, i32* %37, align 4, !tbaa !5
  %39 = call i32 (i8*, ...) @printf(i8* nonnull dereferenceable(1) getelementptr inbounds ([4 x i8], [4 x i8]* @.str, i64 0, i64 0), i32 %38)
  %40 = add nuw nsw i64 %36, 1
  %41 = icmp eq i64 %40, %19
  br i1 %41, label %42, label %35, !llvm.loop !12

42:                                               ; preds = %35, %16
  %43 = zext i32 %9 to i64
  %44 = getelementptr inbounds [300 x i32], [300 x i32]* %2, i64 0, i64 %43
  %45 = load i32, i32* %44, align 4, !tbaa !5
  %46 = call i32 (i8*, ...) @printf(i8* nonnull dereferenceable(1) getelementptr inbounds ([3 x i8], [3 x i8]* @.str.1, i64 0, i64 0), i32 %45)
  call void @llvm.lifetime.end.p0i8(i64 1200, i8* nonnull %5) #4
  call void @llvm.lifetime.end.p0i8(i64 800, i8* nonnull %3) #4
  ret i32 0
}

; Function Attrs: argmemonly mustprogress nofree nosync nounwind willreturn
declare void @llvm.lifetime.start.p0i8(i64 immarg, i8* nocapture) #1

declare i32 @gets(...) local_unnamed_addr #2

; Function Attrs: nofree nounwind
declare noundef i32 @printf(i8* nocapture noundef readonly, ...) local_unnamed_addr #3

; Function Attrs: argmemonly mustprogress nofree nosync nounwind willreturn
declare void @llvm.lifetime.end.p0i8(i64 immarg, i8* nocapture) #1


!llvm.module.flags = !{!0, !1, !2, !3}
!llvm.ident = !{!4}

!0 = !{i32 1, !"wchar_size", i32 4}
!1 = !{i32 7, !"PIC Level", i32 2}
!2 = !{i32 7, !"PIE Level", i32 2}
!3 = !{i32 7, !"uwtable", i32 1}
!4 = !{!"clang version 13.0.0"}
!5 = !{!6, !6, i64 0}
!6 = !{!"int", !7, i64 0}
!7 = !{!"omnipotent char", !8, i64 0}
!8 = !{!"Simple C/C++ TBAA"}
!9 = !{!7, !7, i64 0}
!10 = distinct !{!10, !11}
!11 = !{!"llvm.loop.mustprogress"}
!12 = distinct !{!12, !11}
